target datalayout = "e-m:e-p270:32:32-p271:32:32-p272:64:64-i64:64-i128:128-f80:128-n8:16:32:64-S128"
target triple = "x86_64-pc-linux-gnu"

%struct.H5Z_cb_t = type { ptr, ptr }
%struct.H5T_vlen_alloc_info_t = type { ptr, ptr, ptr, ptr }
%struct.H5T_conv_cb_t = type { ptr, ptr }
%struct.H5CX_node_t = type { %struct.H5CX_t, ptr }
%struct.H5CX_t = type { i64, ptr, i64, ptr, i64, ptr, i64, ptr, i64, ptr, i64, ptr, i64, i32, i64, i8, ptr, i8, ptr, i8, i32, i8, [3 x double], i8, i64, i8, i32, i8, %struct.H5Z_cb_t, i8, ptr, i8, %struct.H5T_vlen_alloc_info_t, i8, %struct.H5T_conv_cb_t, i8, i32, i8, i8, i8, i32, i8, i8, i32, i8, i8, i32, i8, i32, i8, i64, i8, i8, i8, i8, i8, ptr, i8, ptr, i8, i32, i8, i32, i8, %struct.H5VL_connector_prop_t, i8, ptr, i8 }
%struct.H5VL_connector_prop_t = type { i64, ptr }

@.str = private unnamed_addr constant [98 x i8] c"generated/home/dtcxzyw/WorkSpace/Projects/compilers/llvm-opt-benchmark/bench/hdf5/hdf5/src/H5CX.c\00", align 1
@H5E_CONTEXT_g = external global i64, align 8
@H5E_CANTGET_g = external global i64, align 8
@H5CX_head_g = internal global ptr null, align 8
@__func__.H5CX_get_vol_wrap_ctx = private unnamed_addr constant [22 x i8] c"H5CX_get_vol_wrap_ctx\00", align 1
@H5E_UNINITIALIZED_g = external global i64, align 8
@.str.73 = private unnamed_addr constant [32 x i8] c"the API context isn't available\00", align 1
@.str.74 = private unnamed_addr constant [38 x i8] c"unable to get the current API context\00", align 1

; Function Attrs: nounwind uwtable
define i32 @H5CX_get_vol_wrap_ctx(ptr noundef %0) #0 {
  %2 = alloca ptr, align 8
  %3 = alloca ptr, align 8
  %4 = alloca i32, align 4
  %5 = alloca i8, align 1
  store ptr %0, ptr %2, align 8
  store ptr null, ptr %3, align 8
  store i32 0, ptr %4, align 4
  store i8 0, ptr %5, align 1
  store ptr @H5CX_head_g, ptr %3, align 8
  %6 = load ptr, ptr %3, align 8
  %7 = icmp ne ptr %6, null
  br i1 %7, label %23, label %8

8:                                                ; preds = %1
  br label %9

9:                                                ; preds = %8
  br label %10

10:                                               ; preds = %9
  br label %11

11:                                               ; preds = %10
  %12 = load i64, ptr @H5E_CONTEXT_g, align 8
  %13 = load i64, ptr @H5E_UNINITIALIZED_g, align 8
  %14 = call i32 (ptr, ptr, i32, i64, i64, ptr, ...) @H5E_printf_stack(ptr noundef @.str, ptr noundef @__func__.H5CX_get_vol_wrap_ctx, i32 noundef 1627, i64 noundef %12, i64 noundef %13, ptr noundef @.str.73)
  br label %15

15:                                               ; preds = %11
  store i8 1, ptr %5, align 1
  %16 = load i8, ptr %5, align 1
  %17 = trunc i8 %16 to i1
  %18 = zext i1 %17 to i8
  store i8 %18, ptr %5, align 1
  br label %19

19:                                               ; preds = %15
  br label %20

20:                                               ; preds = %19
  store i32 -1, ptr %4, align 4
  br label %59

21:                                               ; No predecessors!
  br label %22

22:                                               ; preds = %21
  br label %23

23:                                               ; preds = %22, %1
  %24 = load ptr, ptr %3, align 8
  %25 = load ptr, ptr %24, align 8
  %26 = icmp ne ptr %25, null
  br i1 %26, label %42, label %27

27:                                               ; preds = %23
  br label %28

28:                                               ; preds = %27
  br label %29

29:                                               ; preds = %28
  br label %30

30:                                               ; preds = %29
  %31 = load i64, ptr @H5E_CONTEXT_g, align 8
  %32 = load i64, ptr @H5E_CANTGET_g, align 8
  %33 = call i32 (ptr, ptr, i32, i64, i64, ptr, ...) @H5E_printf_stack(ptr noundef @.str, ptr noundef @__func__.H5CX_get_vol_wrap_ctx, i32 noundef 1630, i64 noundef %31, i64 noundef %32, ptr noundef @.str.74)
  br label %34

34:                                               ; preds = %30
  store i8 1, ptr %5, align 1
  %35 = load i8, ptr %5, align 1
  %36 = trunc i8 %35 to i1
  %37 = zext i1 %36 to i8
  store i8 %37, ptr %5, align 1
  br label %38

38:                                               ; preds = %34
  br label %39

39:                                               ; preds = %38
  store i32 -1, ptr %4, align 4
  br label %59

40:                                               ; No predecessors!
  br label %41

41:                                               ; preds = %40
  br label %42

42:                                               ; preds = %41, %23
  %43 = load ptr, ptr %3, align 8
  %44 = load ptr, ptr %43, align 8
  %45 = getelementptr inbounds %struct.H5CX_node_t, ptr %44, i32 0, i32 0
  %46 = getelementptr inbounds %struct.H5CX_t, ptr %45, i32 0, i32 67
  %47 = load i8, ptr %46, align 8
  %48 = trunc i8 %47 to i1
  br i1 %48, label %49, label %56

49:                                               ; preds = %42
  %50 = load ptr, ptr %3, align 8
  %51 = load ptr, ptr %50, align 8
  %52 = getelementptr inbounds %struct.H5CX_node_t, ptr %51, i32 0, i32 0
  %53 = getelementptr inbounds %struct.H5CX_t, ptr %52, i32 0, i32 66
  %54 = load ptr, ptr %53, align 8
  %55 = load ptr, ptr %2, align 8
  store ptr %54, ptr %55, align 8
  br label %58

56:                                               ; preds = %42
  %57 = load ptr, ptr %2, align 8
  store ptr null, ptr %57, align 8
  br label %58

58:                                               ; preds = %56, %49
  br label %59

59:                                               ; preds = %58, %39, %20
  %60 = load i32, ptr %4, align 4
  ret i32 %60
}