; Function Attrs: nounwind uwtable
define range(i32 -1, 1) i32 @H5CX_get_vol_wrap_ctx(ptr nocapture noundef writeonly %0) local_unnamed_addr #0 {
  %2 = load ptr, ptr @H5CX_head_g, align 8
  %.not = icmp eq ptr %2, null
  br i1 %.not, label %3, label %7

3:                                                ; preds = %1
  %4 = load i64, ptr @H5E_CONTEXT_g, align 8
  %5 = load i64, ptr @H5E_CANTGET_g, align 8
  %6 = tail call i32 (ptr, ptr, i32, i64, i64, ptr, ...) @H5E_printf_stack(ptr noundef nonnull @.str, ptr noundef nonnull @__func__.H5CX_get_vol_wrap_ctx, i32 noundef 1630, i64 noundef %4, i64 noundef %5, ptr noundef nonnull @.str.74) #13
  br label %15

7:                                                ; preds = %1
  %8 = getelementptr inbounds i8, ptr %2, i64 464
  %9 = load i8, ptr %8, align 8
  %10 = trunc i8 %9 to i1
  br i1 %10, label %11, label %14

11:                                               ; preds = %7
  %12 = getelementptr inbounds i8, ptr %2, i64 456
  %13 = load ptr, ptr %12, align 8
  store ptr %13, ptr %0, align 8
  br label %15

14:                                               ; preds = %7
  store ptr null, ptr %0, align 8
  br label %15

15:                                               ; preds = %11, %14, %3
  %.0 = phi i32 [ 0, %11 ], [ 0, %14 ], [ -1, %3 ]
  ret i32 %.0
}